target datalayout = "e-m:e-p270:32:32-p271:32:32-p272:64:64-i64:64-i128:128-f80:128-n8:16:32:64-S128"
target triple = "x86_64-pc-linux-gnu"

@mpegaudio_tableinit.exp2_lut = internal constant [4 x double] [double 1.000000e+00, double 0x3FF306FE0A31B715, double 0x3FF6A09E667F3BCD, double 0x3FFAE89F995AD3AD], align 16
@expval_table_float = internal global [512 x [16 x float]] zeroinitializer, align 16
@exp_table_float = internal global [512 x float] zeroinitializer, align 16

; Function Attrs: cold nounwind optsize uwtable
define internal void @mpegaudio_tableinit() #0 {
  %1 = alloca i32, align 4
  %2 = alloca i32, align 4
  %3 = alloca i32, align 4
  %4 = alloca [16 x double], align 16
  %5 = alloca double, align 8
  %6 = alloca double, align 8
  %7 = alloca double, align 8
  call void @llvm.lifetime.start.p0(i64 4, ptr %1) #13
  call void @llvm.lifetime.start.p0(i64 4, ptr %2) #13
  call void @llvm.lifetime.start.p0(i64 4, ptr %3) #13
  call void @llvm.lifetime.start.p0(i64 128, ptr %4) #13
  call void @llvm.lifetime.start.p0(i64 8, ptr %5) #13
  store double 0x3B70000000000000, ptr %5, align 8, !tbaa !103
  call void @llvm.lifetime.start.p0(i64 8, ptr %6) #13
  store i32 0, ptr %1, align 4, !tbaa !56
  br label %8

8:                                                ; preds = %21, %0
  %9 = load i32, ptr %1, align 4, !tbaa !56
  %10 = icmp slt i32 %9, 16
  br i1 %10, label %11, label %24

11:                                               ; preds = %8
  %12 = load i32, ptr %1, align 4, !tbaa !56
  %13 = sitofp i32 %12 to double
  %14 = load i32, ptr %1, align 4, !tbaa !56
  %15 = sitofp i32 %14 to double
  %16 = call nsz double @cbrt(double noundef %15) #14
  %17 = fmul nsz double %13, %16
  %18 = load i32, ptr %1, align 4, !tbaa !56
  %19 = sext i32 %18 to i64
  %20 = getelementptr inbounds [16 x double], ptr %4, i64 0, i64 %19
  store double %17, ptr %20, align 8, !tbaa !103
  br label %21

21:                                               ; preds = %11
  %22 = load i32, ptr %1, align 4, !tbaa !56
  %23 = add nsw i32 %22, 1
  store i32 %23, ptr %1, align 4, !tbaa !56
  br label %8, !llvm.loop !108

24:                                               ; preds = %8
  store i32 0, ptr %3, align 4, !tbaa !56
  br label %25

25:                                               ; preds = %77, %24
  %26 = load i32, ptr %3, align 4, !tbaa !56
  %27 = icmp slt i32 %26, 512
  br i1 %27, label %28, label %80

28:                                               ; preds = %25
  %29 = load i32, ptr %3, align 4, !tbaa !56
  %30 = icmp ne i32 %29, 0
  br i1 %30, label %31, label %38

31:                                               ; preds = %28
  %32 = load i32, ptr %3, align 4, !tbaa !56
  %33 = and i32 %32, 3
  %34 = icmp eq i32 %33, 0
  br i1 %34, label %35, label %38

35:                                               ; preds = %31
  %36 = load double, ptr %5, align 8, !tbaa !103
  %37 = fmul nsz double %36, 2.000000e+00
  store double %37, ptr %5, align 8, !tbaa !103
  br label %38

38:                                               ; preds = %35, %31, %28
  %39 = load double, ptr %5, align 8, !tbaa !103
  %40 = load i32, ptr %3, align 4, !tbaa !56
  %41 = and i32 %40, 3
  %42 = sext i32 %41 to i64
  %43 = getelementptr inbounds [4 x double], ptr @mpegaudio_tableinit.exp2_lut, i64 0, i64 %42
  %44 = load double, ptr %43, align 8, !tbaa !103
  %45 = fmul nsz double %39, %44
  %46 = fdiv nsz double %45, 1.759000e+00
  store double %46, ptr %6, align 8, !tbaa !103
  store i32 0, ptr %2, align 4, !tbaa !56
  br label %47

47:                                               ; preds = %65, %38
  %48 = load i32, ptr %2, align 4, !tbaa !56
  %49 = icmp slt i32 %48, 16
  br i1 %49, label %50, label %68

50:                                               ; preds = %47
  call void @llvm.lifetime.start.p0(i64 8, ptr %7) #13
  %51 = load i32, ptr %2, align 4, !tbaa !56
  %52 = sext i32 %51 to i64
  %53 = getelementptr inbounds [16 x double], ptr %4, i64 0, i64 %52
  %54 = load double, ptr %53, align 8, !tbaa !103
  %55 = load double, ptr %6, align 8, !tbaa !103
  %56 = fmul nsz double %54, %55
  store double %56, ptr %7, align 8, !tbaa !103
  %57 = load double, ptr %7, align 8, !tbaa !103
  %58 = fptrunc nsz double %57 to float
  %59 = load i32, ptr %3, align 4, !tbaa !56
  %60 = sext i32 %59 to i64
  %61 = getelementptr inbounds [512 x [16 x float]], ptr @expval_table_float, i64 0, i64 %60
  %62 = load i32, ptr %2, align 4, !tbaa !56
  %63 = sext i32 %62 to i64
  %64 = getelementptr inbounds [16 x float], ptr %61, i64 0, i64 %63
  store float %58, ptr %64, align 4, !tbaa !105
  call void @llvm.lifetime.end.p0(i64 8, ptr %7) #13
  br label %65

65:                                               ; preds = %50
  %66 = load i32, ptr %2, align 4, !tbaa !56
  %67 = add nsw i32 %66, 1
  store i32 %67, ptr %2, align 4, !tbaa !56
  br label %47, !llvm.loop !109

68:                                               ; preds = %47
  %69 = load i32, ptr %3, align 4, !tbaa !56
  %70 = sext i32 %69 to i64
  %71 = getelementptr inbounds [512 x [16 x float]], ptr @expval_table_float, i64 0, i64 %70
  %72 = getelementptr inbounds [16 x float], ptr %71, i64 0, i64 1
  %73 = load float, ptr %72, align 4, !tbaa !105
  %74 = load i32, ptr %3, align 4, !tbaa !56
  %75 = sext i32 %74 to i64
  %76 = getelementptr inbounds [512 x float], ptr @exp_table_float, i64 0, i64 %75
  store float %73, ptr %76, align 4, !tbaa !105
  br label %77

77:                                               ; preds = %68
  %78 = load i32, ptr %3, align 4, !tbaa !56
  %79 = add nsw i32 %78, 1
  store i32 %79, ptr %3, align 4, !tbaa !56
  br label %25, !llvm.loop !110

80:                                               ; preds = %25
  call void @llvm.lifetime.end.p0(i64 8, ptr %6) #13
  call void @llvm.lifetime.end.p0(i64 8, ptr %5) #13
  call void @llvm.lifetime.end.p0(i64 128, ptr %4) #13
  call void @llvm.lifetime.end.p0(i64 4, ptr %3) #13
  call void @llvm.lifetime.end.p0(i64 4, ptr %2) #13
  call void @llvm.lifetime.end.p0(i64 4, ptr %1) #13
  ret void
}