; Function Attrs: cold nofree norecurse nosync nounwind optsize memory(readwrite, argmem: none, inaccessiblemem: none) uwtable
define internal fastcc void @mpegaudio_tableinit() unnamed_addr #6 {
  %1 = alloca [16 x double], align 16
  call void @llvm.lifetime.start.p0(i64 128, ptr nonnull %1) #14
  br label %2

2:                                                ; preds = %0, %2
  %indvars.iv = phi i64 [ 0, %0 ], [ %indvars.iv.next, %2 ]
  %3 = trunc nuw nsw i64 %indvars.iv to i32
  %4 = uitofp nneg i32 %3 to double
  %5 = tail call nsz double @cbrt(double noundef %4) #16
  %6 = fmul nsz double %5, %4
  %7 = getelementptr inbounds nuw [16 x double], ptr %1, i64 0, i64 %indvars.iv
  store double %6, ptr %7, align 8, !tbaa !92
  %indvars.iv.next = add nuw nsw i64 %indvars.iv, 1
  %exitcond.not = icmp eq i64 %indvars.iv.next, 16
  br i1 %exitcond.not, label %.preheader, label %2, !llvm.loop !94

.preheader:                                       ; preds = %2, %22
  %indvars.iv33 = phi i64 [ %indvars.iv.next34, %22 ], [ 0, %2 ]
  %.02127 = phi double [ %.1, %22 ], [ 0x3B70000000000000, %2 ]
  %.not = icmp ne i64 %indvars.iv33, 0
  %8 = and i64 %indvars.iv33, 3
  %9 = icmp eq i64 %8, 0
  %or.cond = and i1 %.not, %9
  %10 = fmul nsz double %.02127, 2.000000e+00
  %.1 = select nsz i1 %or.cond, double %10, double %.02127
  %11 = and i64 %indvars.iv33, 3
  %12 = getelementptr inbounds nuw [4 x double], ptr @mpegaudio_tableinit.exp2_lut, i64 0, i64 %11
  %13 = load double, ptr %12, align 8, !tbaa !92
  %14 = fmul nsz double %.1, %13
  %15 = fdiv nsz double %14, 1.759000e+00
  br label %16

16:                                               ; preds = %.preheader, %16
  %indvars.iv29 = phi i64 [ 0, %.preheader ], [ %indvars.iv.next30, %16 ]
  %17 = getelementptr inbounds nuw [16 x double], ptr %1, i64 0, i64 %indvars.iv29
  %18 = load double, ptr %17, align 8, !tbaa !92
  %19 = fmul nsz double %15, %18
  %20 = fptrunc nsz double %19 to float
  %21 = getelementptr inbounds nuw [512 x [16 x float]], ptr @expval_table_float, i64 0, i64 %indvars.iv33, i64 %indvars.iv29
  store float %20, ptr %21, align 4, !tbaa !89
  %indvars.iv.next30 = add nuw nsw i64 %indvars.iv29, 1
  %exitcond32.not = icmp eq i64 %indvars.iv.next30, 16
  br i1 %exitcond32.not, label %22, label %16, !llvm.loop !95

22:                                               ; preds = %16
  %23 = getelementptr inbounds nuw [512 x [16 x float]], ptr @expval_table_float, i64 0, i64 %indvars.iv33, i64 1
  %24 = load float, ptr %23, align 4, !tbaa !89
  %25 = getelementptr inbounds nuw [512 x float], ptr @exp_table_float, i64 0, i64 %indvars.iv33
  store float %24, ptr %25, align 4, !tbaa !89
  %indvars.iv.next34 = add nuw nsw i64 %indvars.iv33, 1
  %exitcond36.not = icmp eq i64 %indvars.iv.next34, 512
  br i1 %exitcond36.not, label %26, label %.preheader, !llvm.loop !96

26:                                               ; preds = %22
  call void @llvm.lifetime.end.p0(i64 128, ptr nonnull %1) #14
  ret void
}